target datalayout = "e-m:e-p270:32:32-p271:32:32-p272:64:64-i64:64-i128:128-f80:128-n8:16:32:64-S128"
target triple = "x86_64-pc-linux-gnu"

@ecjpake_lgc.x = internal global i32 42, align 4

; Function Attrs: nounwind uwtable
define internal i32 @ecjpake_lgc(ptr noundef %0, ptr noundef %1, i64 noundef %2) #0 {
  %4 = alloca ptr, align 8
  %5 = alloca ptr, align 8
  %6 = alloca i64, align 8
  %7 = alloca i64, align 8
  store ptr %0, ptr %4, align 8, !tbaa !30
  store ptr %1, ptr %5, align 8, !tbaa !20
  store i64 %2, ptr %6, align 8, !tbaa !22
  br label %8

8:                                                ; preds = %17, %3
  %9 = load i64, ptr %6, align 8, !tbaa !22
  %10 = icmp ugt i64 %9, 0
  br i1 %10, label %11, label %30

11:                                               ; preds = %8
  call void @llvm.lifetime.start.p0(i64 8, ptr %7) #9
  %12 = load i64, ptr %6, align 8, !tbaa !22
  %13 = icmp ugt i64 %12, 4
  br i1 %13, label %14, label %15

14:                                               ; preds = %11
  br label %17

15:                                               ; preds = %11
  %16 = load i64, ptr %6, align 8, !tbaa !22
  br label %17

17:                                               ; preds = %15, %14
  %18 = phi i64 [ 4, %14 ], [ %16, %15 ]
  store i64 %18, ptr %7, align 8, !tbaa !22
  %19 = load i32, ptr @ecjpake_lgc.x, align 4, !tbaa !19
  %20 = mul i32 1664525, %19
  %21 = add i32 %20, 1013904223
  store i32 %21, ptr @ecjpake_lgc.x, align 4, !tbaa !19
  %22 = load ptr, ptr %5, align 8, !tbaa !20
  %23 = load i64, ptr %7, align 8, !tbaa !22
  call void @llvm.memcpy.p0.p0.i64(ptr align 1 %22, ptr align 4 @ecjpake_lgc.x, i64 %23, i1 false)
  %24 = load i64, ptr %7, align 8, !tbaa !22
  %25 = load ptr, ptr %5, align 8, !tbaa !20
  %26 = getelementptr inbounds nuw i8, ptr %25, i64 %24
  store ptr %26, ptr %5, align 8, !tbaa !20
  %27 = load i64, ptr %7, align 8, !tbaa !22
  %28 = load i64, ptr %6, align 8, !tbaa !22
  %29 = sub i64 %28, %27
  store i64 %29, ptr %6, align 8, !tbaa !22
  call void @llvm.lifetime.end.p0(i64 8, ptr %7) #9
  br label %8, !llvm.loop !40

30:                                               ; preds = %8
  ret i32 0
}