; Function Attrs: nofree norecurse nosync nounwind memory(readwrite, inaccessiblemem: none) uwtable
define internal noundef i32 @ecjpake_lgc(ptr readnone captures(none) %0, ptr noundef writeonly captures(none) %1, i64 noundef %2) #6 {
  %.not9 = icmp eq i64 %2, 0
  br i1 %.not9, label %._crit_edge, label %.lr.ph.preheader

.lr.ph.preheader:                                 ; preds = %3
  %ecjpake_lgc.x.promoted = load i32, ptr @ecjpake_lgc.x, align 4
  br label %.lr.ph

.lr.ph:                                           ; preds = %.lr.ph.preheader, %.lr.ph
  %.011 = phi ptr [ %8, %.lr.ph ], [ %1, %.lr.ph.preheader ]
  %.0810 = phi i64 [ %9, %.lr.ph ], [ %2, %.lr.ph.preheader ]
  %4 = phi i32 [ %7, %.lr.ph ], [ %ecjpake_lgc.x.promoted, %.lr.ph.preheader ]
  %5 = tail call i64 @llvm.umin.i64(i64 %.0810, i64 4)
  %6 = mul i32 %4, 1664525
  %7 = add i32 %6, 1013904223
  store i32 %7, ptr @ecjpake_lgc.x, align 4, !tbaa !27
  tail call void @llvm.memcpy.p0.p0.i64(ptr noundef nonnull align 1 dereferenceable(1) %.011, ptr noundef nonnull align 4 dereferenceable(1) @ecjpake_lgc.x, i64 %5, i1 false)
  %8 = getelementptr inbounds nuw i8, ptr %.011, i64 %5
  %9 = sub i64 %.0810, %5
  %.not = icmp eq i64 %9, 0
  br i1 %.not, label %._crit_edge, label %.lr.ph, !llvm.loop !28

._crit_edge:                                      ; preds = %.lr.ph, %3
  ret i32 0
}